; Function Attrs: nounwind uwtable
define void @place_graph_label(ptr noundef %0) local_unnamed_addr #0 {
  %2 = tail call ptr @agroot(ptr noundef %0) #18
  %.not = icmp eq ptr %0, %2
  %.phi.trans.insert = getelementptr inbounds nuw i8, ptr %0, i64 16
  %.pre = load ptr, ptr %.phi.trans.insert, align 8, !tbaa !3
  br i1 %.not, label %._crit_edge38, label %3

3:                                                ; preds = %1
  %4 = getelementptr inbounds nuw i8, ptr %.pre, i64 24
  %5 = load ptr, ptr %4, align 8, !tbaa !18
  %.not30 = icmp eq ptr %5, null
  br i1 %.not30, label %._crit_edge38, label %6

6:                                                ; preds = %3
  %7 = getelementptr inbounds nuw i8, ptr %5, i64 105
  %8 = load i8, ptr %7, align 1, !tbaa !52, !range !54, !noundef !55
  %9 = trunc nuw i8 %8 to i1
  br i1 %9, label %._crit_edge38, label %10

10:                                               ; preds = %6
  %11 = getelementptr inbounds nuw i8, ptr %.pre, i64 395
  %12 = load i8, ptr %11, align 1, !tbaa !122
  %13 = and i8 %12, 1
  %.not31 = icmp eq i8 %13, 0
  br i1 %.not31, label %20, label %14

14:                                               ; preds = %10
  %15 = getelementptr inbounds nuw i8, ptr %.pre, i64 96
  %.sroa.6.0..sroa_idx = getelementptr inbounds nuw i8, ptr %.pre, i64 104
  %.sroa.6.0.copyload = load double, ptr %.sroa.6.0..sroa_idx, align 8, !tbaa !12
  %16 = getelementptr inbounds nuw i8, ptr %.pre, i64 56
  %17 = load double, ptr %16, align 8, !tbaa !125
  %18 = fmul double %.sroa.6.0.copyload, 5.000000e-01
  %19 = fsub double %17, %18
  br label %26

20:                                               ; preds = %10
  %21 = getelementptr inbounds nuw i8, ptr %.pre, i64 64
  %.sroa.6.0..sroa_idx3 = getelementptr inbounds nuw i8, ptr %.pre, i64 72
  %.sroa.6.0.copyload4 = load double, ptr %.sroa.6.0..sroa_idx3, align 8, !tbaa !12
  %22 = getelementptr inbounds nuw i8, ptr %.pre, i64 40
  %23 = load double, ptr %22, align 8, !tbaa !126
  %24 = fmul double %.sroa.6.0.copyload4, 5.000000e-01
  %25 = fadd double %23, %24
  br label %26

26:                                               ; preds = %20, %14
  %.sroa.67.0 = phi double [ %19, %14 ], [ %25, %20 ]
  %.sroa.0.0.in = phi ptr [ %15, %14 ], [ %21, %20 ]
  %.sroa.0.0 = load double, ptr %.sroa.0.0.in, align 8, !tbaa !12
  %27 = and i8 %12, 4
  %.not32 = icmp eq i8 %27, 0
  br i1 %.not32, label %33, label %28

28:                                               ; preds = %26
  %29 = getelementptr inbounds nuw i8, ptr %.pre, i64 48
  %30 = load double, ptr %29, align 8, !tbaa !123
  %31 = fmul double %.sroa.0.0, 5.000000e-01
  %32 = fsub double %30, %31
  br label %45

33:                                               ; preds = %26
  %34 = and i8 %12, 2
  %.not33 = icmp eq i8 %34, 0
  %35 = getelementptr inbounds nuw i8, ptr %.pre, i64 32
  %36 = load double, ptr %35, align 8, !tbaa !124
  br i1 %.not33, label %40, label %37

37:                                               ; preds = %33
  %38 = fmul double %.sroa.0.0, 5.000000e-01
  %39 = fadd double %38, %36
  br label %45

40:                                               ; preds = %33
  %41 = getelementptr inbounds nuw i8, ptr %.pre, i64 48
  %42 = load double, ptr %41, align 8, !tbaa !123
  %43 = fadd double %36, %42
  %44 = fmul double %43, 5.000000e-01
  br label %45

45:                                               ; preds = %37, %40, %28
  %.sroa.06.0 = phi double [ %32, %28 ], [ %39, %37 ], [ %44, %40 ]
  %46 = getelementptr inbounds nuw i8, ptr %5, i64 72
  store double %.sroa.06.0, ptr %46, align 8, !tbaa !12
  %.sroa.67.0..sroa_idx = getelementptr inbounds nuw i8, ptr %5, i64 80
  store double %.sroa.67.0, ptr %.sroa.67.0..sroa_idx, align 8, !tbaa !12
  store i8 1, ptr %7, align 1, !tbaa !52
  br label %._crit_edge38

._crit_edge38:                                    ; preds = %1, %45, %6, %3
  %47 = getelementptr inbounds nuw i8, ptr %0, i64 16
  %48 = getelementptr inbounds nuw i8, ptr %.pre, i64 236
  %49 = load i32, ptr %48, align 4, !tbaa !36
  %.not3435 = icmp slt i32 %49, 1
  br i1 %.not3435, label %._crit_edge, label %.lr.ph

.lr.ph:                                           ; preds = %._crit_edge38, %.lr.ph
  %indvars.iv = phi i64 [ %indvars.iv.next, %.lr.ph ], [ 1, %._crit_edge38 ]
  %50 = phi ptr [ %55, %.lr.ph ], [ %.pre, %._crit_edge38 ]
  %51 = getelementptr inbounds nuw i8, ptr %50, i64 240
  %52 = load ptr, ptr %51, align 8, !tbaa !37
  %53 = getelementptr inbounds nuw ptr, ptr %52, i64 %indvars.iv
  %54 = load ptr, ptr %53, align 8, !tbaa !38
  tail call void @place_graph_label(ptr noundef %54)
  %indvars.iv.next = add nuw nsw i64 %indvars.iv, 1
  %55 = load ptr, ptr %47, align 8, !tbaa !3
  %56 = getelementptr inbounds nuw i8, ptr %55, i64 236
  %57 = load i32, ptr %56, align 4, !tbaa !36
  %58 = sext i32 %57 to i64
  %.not34.not = icmp slt i64 %indvars.iv, %58
  br i1 %.not34.not, label %.lr.ph, label %._crit_edge, !llvm.loop !146

._crit_edge:                                      ; preds = %.lr.ph, %._crit_edge38
  ret void
}